target datalayout = "e-m:e-p270:32:32-p271:32:32-p272:64:64-i64:64-i128:128-f80:128-n8:16:32:64-S128"
target triple = "x86_64-pc-linux-gnu"

%struct.prov_seed_ctx_st = type { %struct.prov_cipher_ctx_st, %union.anon.0 }
%struct.prov_cipher_ctx_st = type { [16 x i8], [16 x i8], [16 x i8], ptr, %union.anon, i32, i64, i64, i64, i64, i32, i8, i32, ptr, i32, i64, i32, i64, i32, ptr, ptr, ptr }
%union.anon = type { ptr }
%union.anon.0 = type { double, [120 x i8] }

; Function Attrs: nounwind uwtable
define internal i32 @cipher_hw_seed_ecb_cipher(ptr noundef %0, ptr noundef %1, ptr noundef %2, i64 noundef %3) #0 {
  %5 = alloca i32, align 4
  %6 = alloca ptr, align 8
  %7 = alloca ptr, align 8
  %8 = alloca ptr, align 8
  %9 = alloca i64, align 8
  %10 = alloca i64, align 8
  %11 = alloca i64, align 8
  %12 = alloca ptr, align 8
  %13 = alloca i32, align 4
  store ptr %0, ptr %6, align 8, !tbaa !7
  store ptr %1, ptr %7, align 8, !tbaa !10
  store ptr %2, ptr %8, align 8, !tbaa !10
  store i64 %3, ptr %9, align 8, !tbaa !3
  call void @llvm.lifetime.start.p0(i64 8, ptr %10) #3
  call void @llvm.lifetime.start.p0(i64 8, ptr %11) #3
  %14 = load ptr, ptr %6, align 8, !tbaa !7
  %15 = getelementptr inbounds nuw %struct.prov_cipher_ctx_st, ptr %14, i32 0, i32 8
  %16 = load i64, ptr %15, align 8, !tbaa !18
  store i64 %16, ptr %11, align 8, !tbaa !3
  call void @llvm.lifetime.start.p0(i64 8, ptr %12) #3
  %17 = load ptr, ptr %6, align 8, !tbaa !7
  %18 = getelementptr inbounds nuw %struct.prov_seed_ctx_st, ptr %17, i32 0, i32 1
  store ptr %18, ptr %12, align 8, !tbaa !14
  %19 = load i64, ptr %9, align 8, !tbaa !3
  %20 = load i64, ptr %11, align 8, !tbaa !3
  %21 = icmp ult i64 %19, %20
  br i1 %21, label %22, label %23

22:                                               ; preds = %4
  store i32 1, ptr %5, align 4
  store i32 1, ptr %13, align 4
  br label %50

23:                                               ; preds = %4
  store i64 0, ptr %10, align 8, !tbaa !3
  %24 = load i64, ptr %11, align 8, !tbaa !3
  %25 = load i64, ptr %9, align 8, !tbaa !3
  %26 = sub i64 %25, %24
  store i64 %26, ptr %9, align 8, !tbaa !3
  br label %27

27:                                               ; preds = %45, %23
  %28 = load i64, ptr %10, align 8, !tbaa !3
  %29 = load i64, ptr %9, align 8, !tbaa !3
  %30 = icmp ule i64 %28, %29
  br i1 %30, label %31, label %49

31:                                               ; preds = %27
  %32 = load ptr, ptr %8, align 8, !tbaa !10
  %33 = load i64, ptr %10, align 8, !tbaa !3
  %34 = getelementptr inbounds nuw i8, ptr %32, i64 %33
  %35 = load ptr, ptr %7, align 8, !tbaa !10
  %36 = load i64, ptr %10, align 8, !tbaa !3
  %37 = getelementptr inbounds nuw i8, ptr %35, i64 %36
  %38 = load ptr, ptr %12, align 8, !tbaa !14
  %39 = load ptr, ptr %6, align 8, !tbaa !7
  %40 = getelementptr inbounds nuw %struct.prov_cipher_ctx_st, ptr %39, i32 0, i32 11
  %41 = load i8, ptr %40, align 4
  %42 = lshr i8 %41, 1
  %43 = and i8 %42, 1
  %44 = zext i8 %43 to i32
  call void @SEED_ecb_encrypt(ptr noundef %34, ptr noundef %37, ptr noundef %38, i32 noundef %44)
  br label %45

45:                                               ; preds = %31
  %46 = load i64, ptr %11, align 8, !tbaa !3
  %47 = load i64, ptr %10, align 8, !tbaa !3
  %48 = add i64 %47, %46
  store i64 %48, ptr %10, align 8, !tbaa !3
  br label %27, !llvm.loop !23

49:                                               ; preds = %27
  store i32 1, ptr %5, align 4
  store i32 1, ptr %13, align 4
  br label %50

50:                                               ; preds = %49, %22
  call void @llvm.lifetime.end.p0(i64 8, ptr %12) #3
  call void @llvm.lifetime.end.p0(i64 8, ptr %11) #3
  call void @llvm.lifetime.end.p0(i64 8, ptr %10) #3
  %51 = load i32, ptr %5, align 4
  ret i32 %51
}